target datalayout = "e-m:e-p270:32:32-p271:32:32-p272:64:64-i64:64-i128:128-f80:128-n8:16:32:64-S128"
target triple = "x86_64-pc-linux-gnu"

%struct.ARKodeRelaxMemRec = type { ptr, ptr, ptr, ptr, i32, i64, i64, i64, double, double, double, double, double, double, double, double, double, i32, double, double, double, i32, i64, i64, i64 }
%struct.ARKodeMemRec = type { ptr, double, ptr, i32, i32, double, double, ptr, i32, double, ptr, i32, i32, ptr, ptr, i32, ptr, ptr, i32, ptr, ptr, ptr, ptr, ptr, ptr, ptr, ptr, ptr, ptr, ptr, ptr, ptr, ptr, ptr, i32, ptr, ptr, ptr, i32, ptr, ptr, ptr, ptr, ptr, ptr, i32, i32, i32, double, double, double, double, double, double, double, double, double, double, i32, ptr, i64, i32, i32, i32, i32, i64, i64, i32, i64, i64, i64, i64, i64, i64, i64, double, double, double, double, double, i32, i32, i32, i32, i32, i32, i32, i32, ptr, i32, ptr, ptr, ptr, ptr, i32, i32, i32 }

@.str = private unnamed_addr constant [126 x i8] c"generated/home/dtcxzyw/WorkSpace/Projects/compilers/llvm-opt-benchmark/bench/sundials/sundials/src/arkode/arkode_relaxation.c\00", align 1
@__func__.arkRelaxSetTol = private unnamed_addr constant [15 x i8] c"arkRelaxSetTol\00", align 1
@.str.15 = private unnamed_addr constant [27 x i8] c"arkode_mem = NULL illegal.\00", align 1
@.str.19 = private unnamed_addr constant [27 x i8] c"Relaxation memory is NULL.\00", align 1

; Function Attrs: nounwind uwtable
define internal i32 @arkRelaxAccessMem(ptr noundef %0, ptr noundef %1, ptr noundef %2, ptr noundef %3) #0 {
  %5 = alloca i32, align 4
  %6 = alloca ptr, align 8
  %7 = alloca ptr, align 8
  %8 = alloca ptr, align 8
  %9 = alloca ptr, align 8
  store ptr %0, ptr %6, align 8
  store ptr %1, ptr %7, align 8
  store ptr %2, ptr %8, align 8
  store ptr %3, ptr %9, align 8
  %10 = load ptr, ptr %6, align 8
  %11 = icmp ne ptr %10, null
  br i1 %11, label %14, label %12

12:                                               ; preds = %4
  %13 = load ptr, ptr %7, align 8
  call void (ptr, i32, i32, ptr, ptr, ptr, ...) @arkProcessError(ptr noundef null, i32 noundef -21, i32 noundef 42, ptr noundef %13, ptr noundef @.str, ptr noundef @.str.15)
  store i32 -21, ptr %5, align 4
  br label %32

14:                                               ; preds = %4
  %15 = load ptr, ptr %6, align 8
  %16 = load ptr, ptr %8, align 8
  store ptr %15, ptr %16, align 8
  %17 = load ptr, ptr %8, align 8
  %18 = load ptr, ptr %17, align 8
  %19 = getelementptr inbounds %struct.ARKodeMemRec, ptr %18, i32 0, i32 90
  %20 = load ptr, ptr %19, align 8
  %21 = icmp ne ptr %20, null
  br i1 %21, label %26, label %22

22:                                               ; preds = %14
  %23 = load ptr, ptr %8, align 8
  %24 = load ptr, ptr %23, align 8
  %25 = load ptr, ptr %7, align 8
  call void (ptr, i32, i32, ptr, ptr, ptr, ...) @arkProcessError(ptr noundef %24, i32 noundef -44, i32 noundef 50, ptr noundef %25, ptr noundef @.str, ptr noundef @.str.19)
  store i32 -44, ptr %5, align 4
  br label %32

26:                                               ; preds = %14
  %27 = load ptr, ptr %8, align 8
  %28 = load ptr, ptr %27, align 8
  %29 = getelementptr inbounds %struct.ARKodeMemRec, ptr %28, i32 0, i32 90
  %30 = load ptr, ptr %29, align 8
  %31 = load ptr, ptr %9, align 8
  store ptr %30, ptr %31, align 8
  store i32 0, ptr %5, align 4
  br label %32

32:                                               ; preds = %26, %22, %12
  %33 = load i32, ptr %5, align 4
  ret i32 %33
}

; Function Attrs: nounwind uwtable
define i32 @arkRelaxSetTol(ptr noundef %0, double noundef %1, double noundef %2) #0 {
  %4 = alloca i32, align 4
  %5 = alloca ptr, align 8
  %6 = alloca double, align 8
  %7 = alloca double, align 8
  %8 = alloca i32, align 4
  %9 = alloca ptr, align 8
  %10 = alloca ptr, align 8
  store ptr %0, ptr %5, align 8
  store double %1, ptr %6, align 8
  store double %2, ptr %7, align 8
  %11 = load ptr, ptr %5, align 8
  %12 = call i32 @arkRelaxAccessMem(ptr noundef %11, ptr noundef @__func__.arkRelaxSetTol, ptr noundef %9, ptr noundef %10)
  store i32 %12, ptr %8, align 4
  %13 = load i32, ptr %8, align 4
  %14 = icmp ne i32 %13, 0
  br i1 %14, label %15, label %17

15:                                               ; preds = %3
  %16 = load i32, ptr %8, align 4
  store i32 %16, ptr %4, align 4
  br label %38

17:                                               ; preds = %3
  %18 = load double, ptr %6, align 8
  %19 = fcmp ogt double %18, 0.000000e+00
  br i1 %19, label %20, label %24

20:                                               ; preds = %17
  %21 = load double, ptr %6, align 8
  %22 = load ptr, ptr %10, align 8
  %23 = getelementptr inbounds %struct.ARKodeRelaxMemRec, ptr %22, i32 0, i32 19
  store double %21, ptr %23, align 8
  br label %27

24:                                               ; preds = %17
  %25 = load ptr, ptr %10, align 8
  %26 = getelementptr inbounds %struct.ARKodeRelaxMemRec, ptr %25, i32 0, i32 19
  store double 0x3CD0000000000000, ptr %26, align 8
  br label %27

27:                                               ; preds = %24, %20
  %28 = load double, ptr %7, align 8
  %29 = fcmp ogt double %28, 0.000000e+00
  br i1 %29, label %30, label %34

30:                                               ; preds = %27
  %31 = load double, ptr %7, align 8
  %32 = load ptr, ptr %10, align 8
  %33 = getelementptr inbounds %struct.ARKodeRelaxMemRec, ptr %32, i32 0, i32 20
  store double %31, ptr %33, align 8
  br label %37

34:                                               ; preds = %27
  %35 = load ptr, ptr %10, align 8
  %36 = getelementptr inbounds %struct.ARKodeRelaxMemRec, ptr %35, i32 0, i32 20
  store double 0x3D06849B86A12B9B, ptr %36, align 8
  br label %37

37:                                               ; preds = %34, %30
  store i32 0, ptr %4, align 4
  br label %38

38:                                               ; preds = %37, %15
  %39 = load i32, ptr %4, align 4
  ret i32 %39
}