; Function Attrs: nounwind uwtable
define range(i32 -44, 1) i32 @arkRelaxSetTol(ptr noundef %0, double noundef %1, double noundef %2) local_unnamed_addr #0 {
  %.not.i = icmp eq ptr %0, null
  br i1 %.not.i, label %4, label %5

4:                                                ; preds = %3
  tail call void (ptr, i32, i32, ptr, ptr, ptr, ...) @arkProcessError(ptr noundef null, i32 noundef -21, i32 noundef 42, ptr noundef nonnull @__func__.arkRelaxSetTol, ptr noundef nonnull @.str, ptr noundef nonnull @.str.15) #8
  br label %arkRelaxAccessMem.exit.thread

5:                                                ; preds = %3
  %6 = getelementptr inbounds nuw i8, ptr %0, i64 648
  %7 = load ptr, ptr %6, align 8
  %.not11.i = icmp eq ptr %7, null
  br i1 %.not11.i, label %8, label %arkRelaxAccessMem.exit

8:                                                ; preds = %5
  tail call void (ptr, i32, i32, ptr, ptr, ptr, ...) @arkProcessError(ptr noundef nonnull %0, i32 noundef -44, i32 noundef 50, ptr noundef nonnull @__func__.arkRelaxSetTol, ptr noundef nonnull @.str, ptr noundef nonnull @.str.19) #8
  br label %arkRelaxAccessMem.exit.thread

arkRelaxAccessMem.exit:                           ; preds = %5
  %9 = fcmp ogt double %1, 0.000000e+00
  %.sink = select i1 %9, double %1, double 0x3CD0000000000000
  %10 = getelementptr inbounds nuw i8, ptr %7, i64 152
  store double %.sink, ptr %10, align 8
  %11 = fcmp ogt double %2, 0.000000e+00
  %12 = getelementptr inbounds nuw i8, ptr %7, i64 160
  br i1 %11, label %13, label %14

13:                                               ; preds = %arkRelaxAccessMem.exit
  store double %2, ptr %12, align 8
  br label %arkRelaxAccessMem.exit.thread

14:                                               ; preds = %arkRelaxAccessMem.exit
  store double 0x3D06849B86A12B9B, ptr %12, align 8
  br label %arkRelaxAccessMem.exit.thread

arkRelaxAccessMem.exit.thread:                    ; preds = %4, %8, %13, %14
  %.0 = phi i32 [ 0, %14 ], [ 0, %13 ], [ -21, %4 ], [ -44, %8 ]
  ret i32 %.0
}